; Function Attrs: nounwind uwtable
define zeroext range(i8 0, 2) i8 @l_Lean_PersistentArray_anyM___at_Lean_LocalContext_any___spec__1(ptr noundef %0, ptr noundef readonly captures(none) %1) local_unnamed_addr #2 {
  %3 = getelementptr inbounds nuw i8, ptr %1, i64 8
  %4 = load ptr, ptr %3, align 8, !tbaa !9
  %5 = ptrtoint ptr %0 to i64
  %6 = and i64 %5, 1
  %.not = icmp eq i64 %6, 0
  br i1 %.not, label %7, label %lean_inc.exit.thread

7:                                                ; preds = %2
  %.val.i = load i32, ptr %0, align 4, !tbaa !4
  %8 = icmp sgt i32 %.val.i, 0
  br i1 %8, label %9, label %11, !prof !11

9:                                                ; preds = %7
  %10 = add nuw i32 %.val.i, 1
  store i32 %10, ptr %0, align 4, !tbaa !4
  br label %lean_inc.exit

11:                                               ; preds = %7
  %.not.i31 = icmp eq i32 %.val.i, 0
  br i1 %.not.i31, label %lean_inc.exit, label %12

12:                                               ; preds = %11
  tail call void @lean_inc_ref_cold(ptr noundef nonnull %0) #8
  br label %lean_inc.exit

lean_inc.exit:                                    ; preds = %12, %11, %9
  %13 = tail call zeroext i8 @l_Lean_PersistentArray_anyMAux___at_Lean_LocalContext_any___spec__2(ptr noundef nonnull %0, ptr noundef %4)
  %14 = icmp eq i8 %13, 0
  br i1 %14, label %lean_nat_lt.exit, label %31

lean_inc.exit.thread:                             ; preds = %2
  %15 = tail call zeroext i8 @l_Lean_PersistentArray_anyMAux___at_Lean_LocalContext_any___spec__2(ptr noundef %0, ptr noundef %4)
  %16 = icmp eq i8 %15, 0
  br i1 %16, label %lean_nat_lt.exit.thread, label %lean_dec.exit23

lean_nat_lt.exit:                                 ; preds = %lean_inc.exit
  %17 = getelementptr inbounds nuw i8, ptr %1, i64 16
  %18 = load ptr, ptr %17, align 8, !tbaa !9
  %19 = getelementptr i8, ptr %18, i64 8
  %.val = load i64, ptr %19, align 8, !tbaa !12
  %.mask = and i64 %.val, 9223372036854775807
  %.not33 = icmp eq i64 %.mask, 0
  br i1 %.not33, label %lean_dec.exit24, label %lean_dec.exit22

lean_nat_lt.exit.thread:                          ; preds = %lean_inc.exit.thread
  %20 = getelementptr inbounds nuw i8, ptr %1, i64 16
  %21 = load ptr, ptr %20, align 8, !tbaa !9
  %22 = getelementptr i8, ptr %21, i64 8
  %.val34 = load i64, ptr %22, align 8, !tbaa !12
  %.mask35 = and i64 %.val34, 9223372036854775807
  %.not3336 = icmp eq i64 %.mask35, 0
  br i1 %.not3336, label %lean_dec.exit23, label %lean_dec.exit22

lean_dec.exit24:                                  ; preds = %lean_nat_lt.exit
  %23 = load i32, ptr %0, align 4, !tbaa !4
  %24 = icmp sgt i32 %23, 1
  br i1 %24, label %25, label %27, !prof !11

25:                                               ; preds = %lean_dec.exit24
  %26 = add nsw i32 %23, -1
  store i32 %26, ptr %0, align 4, !tbaa !4
  br label %lean_dec.exit23

27:                                               ; preds = %lean_dec.exit24
  %.not.i25 = icmp eq i32 %23, 0
  br i1 %.not.i25, label %lean_dec.exit23, label %28

28:                                               ; preds = %27
  tail call void @lean_dec_ref_cold(ptr noundef nonnull %0) #8
  br label %lean_dec.exit23

lean_dec.exit22:                                  ; preds = %lean_nat_lt.exit.thread, %lean_nat_lt.exit
  %.mask37 = phi i64 [ %.mask35, %lean_nat_lt.exit.thread ], [ %.mask, %lean_nat_lt.exit ]
  %29 = phi ptr [ %21, %lean_nat_lt.exit.thread ], [ %18, %lean_nat_lt.exit ]
  %30 = tail call zeroext i8 @l_Array_anyMUnsafe_any___at_Lean_LocalContext_any___spec__5(ptr noundef %0, ptr noundef nonnull %29, i64 noundef 0, i64 noundef %.mask37)
  br label %lean_dec.exit23

31:                                               ; preds = %lean_inc.exit
  %32 = load i32, ptr %0, align 4, !tbaa !4
  %33 = icmp sgt i32 %32, 1
  br i1 %33, label %34, label %36, !prof !11

34:                                               ; preds = %31
  %35 = add nsw i32 %32, -1
  store i32 %35, ptr %0, align 4, !tbaa !4
  br label %lean_dec.exit23

36:                                               ; preds = %31
  %.not.i29 = icmp eq i32 %32, 0
  br i1 %.not.i29, label %lean_dec.exit23, label %37

37:                                               ; preds = %36
  tail call void @lean_dec_ref_cold(ptr noundef nonnull %0) #8
  br label %lean_dec.exit23

lean_dec.exit23:                                  ; preds = %lean_nat_lt.exit.thread, %lean_inc.exit.thread, %34, %36, %37, %25, %27, %28, %lean_dec.exit22
  %.1 = phi i8 [ %30, %lean_dec.exit22 ], [ 0, %28 ], [ 0, %27 ], [ 0, %25 ], [ 1, %34 ], [ 1, %36 ], [ 1, %37 ], [ 1, %lean_inc.exit.thread ], [ 0, %lean_nat_lt.exit.thread ]
  ret i8 %.1
}